; Function Attrs: nounwind uwtable
define internal i32 @pop3_doing(ptr noundef %0, ptr noundef writeonly captures(none) %1) #0 {
  %3 = alloca i8, align 1
  %4 = getelementptr inbounds nuw i8, ptr %0, i64 24
  %5 = load ptr, ptr %4, align 8, !tbaa !83
  %6 = getelementptr inbounds nuw i8, ptr %5, i64 1088
  %7 = tail call zeroext i1 @Curl_conn_is_ssl(ptr noundef %5, i32 noundef 0) #6
  br i1 %7, label %8, label %.critedge.i

8:                                                ; preds = %2
  %9 = getelementptr inbounds nuw i8, ptr %5, i64 1314
  %10 = load i8, ptr %9, align 2
  %11 = and i8 %10, 1
  %.not.i = icmp eq i8 %11, 0
  br i1 %.not.i, label %12, label %.critedge.i

12:                                               ; preds = %8
  call void @llvm.lifetime.start.p0(i64 1, ptr nonnull %3) #6
  store i8 0, ptr %3, align 1, !tbaa !8
  %13 = call i32 @Curl_conn_connect(ptr noundef nonnull %0, i32 noundef 0, i1 noundef zeroext false, ptr noundef nonnull %3) #6
  %14 = load i8, ptr %3, align 1, !tbaa !8, !range !96, !noundef !97
  %15 = load i8, ptr %9, align 2
  %16 = and i8 %15, -2
  %17 = or disjoint i8 %16, %14
  store i8 %17, ptr %9, align 2
  %.not16.i = icmp ne i32 %13, 0
  %.not17.i = icmp eq i8 %14, 0
  %or.cond.i = or i1 %.not16.i, %.not17.i
  call void @llvm.lifetime.end.p0(i64 1, ptr nonnull %3) #6
  br i1 %or.cond.i, label %pop3_multi_statemach.exit, label %.critedge.i

.critedge.i:                                      ; preds = %12, %8, %2
  %18 = call i32 @Curl_pp_statemach(ptr noundef nonnull %0, ptr noundef nonnull %6, i1 noundef zeroext false, i1 noundef zeroext false) #6
  %19 = getelementptr inbounds nuw i8, ptr %5, i64 1248
  %20 = load i32, ptr %19, align 8, !tbaa !86
  %21 = icmp eq i32 %20, 0
  %22 = zext i1 %21 to i8
  store i8 %22, ptr %1, align 1, !tbaa !8
  br label %pop3_multi_statemach.exit

pop3_multi_statemach.exit:                        ; preds = %12, %.critedge.i
  %.1.i = phi i32 [ %18, %.critedge.i ], [ %13, %12 ]
  ret i32 %.1.i
}